; Function Attrs: null_pointer_is_valid sspstrong uwtable
define internal noundef zeroext i1 @bytes_from_charconst(ptr noundef captures(none) %0, i64 noundef %1, ptr noundef writeonly captures(address_is_null) %2) #0 {
  %4 = alloca i8, align 1
  %5 = icmp ugt i64 %1, 255
  br i1 %5, label %6, label %byte_array_from_charconst.exit

6:                                                ; preds = %3
  %.not.i = icmp eq ptr %2, null
  br i1 %.not.i, label %byte_array_from_charconst.exit.thread, label %7

7:                                                ; preds = %6
  %8 = tail call noalias ptr (ptr, ptr, ...) @wmem_strdup_printf(ptr noundef null, ptr noundef nonnull @.str.1, i64 noundef %1)
  store ptr %8, ptr %2, align 8
  br label %byte_array_from_charconst.exit.thread

byte_array_from_charconst.exit:                   ; preds = %3
  %9 = tail call ptr @g_byte_array_new()
  call void @llvm.lifetime.start.p0(i64 1, ptr nonnull %4) #12
  %10 = trunc nuw i64 %1 to i8
  store i8 %10, ptr %4, align 1
  %11 = call ptr @g_byte_array_append(ptr noundef %9, ptr noundef nonnull %4, i32 noundef 1)
  call void @llvm.lifetime.end.p0(i64 1, ptr nonnull %4) #12
  %.not = icmp eq ptr %9, null
  br i1 %.not, label %byte_array_from_charconst.exit.thread, label %12

12:                                               ; preds = %byte_array_from_charconst.exit
  %13 = getelementptr inbounds nuw i8, ptr %0, i64 8
  %14 = load ptr, ptr %13, align 8
  %.not.i7 = icmp eq ptr %14, null
  br i1 %.not.i7, label %bytes_fvalue_free.exit, label %15

15:                                               ; preds = %12
  call void @g_bytes_unref(ptr noundef nonnull %14)
  store ptr null, ptr %13, align 8
  br label %bytes_fvalue_free.exit

bytes_fvalue_free.exit:                           ; preds = %12, %15
  %16 = call ptr @g_byte_array_free_to_bytes(ptr noundef nonnull %9)
  store ptr %16, ptr %13, align 8
  br label %byte_array_from_charconst.exit.thread

byte_array_from_charconst.exit.thread:            ; preds = %6, %7, %byte_array_from_charconst.exit, %bytes_fvalue_free.exit
  %17 = phi i1 [ false, %byte_array_from_charconst.exit ], [ true, %bytes_fvalue_free.exit ], [ false, %7 ], [ false, %6 ]
  ret i1 %17
}